target datalayout = "e-m:e-p270:32:32-p271:32:32-p272:64:64-i64:64-i128:128-f80:128-n8:16:32:64-S128"
target triple = "x86_64-pc-linux-gnu"

%struct.float16_t = type { i16 }
%union.ui16_bf16 = type { i16 }

@softfloat_exceptionFlags = external thread_local global i8, align 1
@rsqrte7.table = internal constant [128 x i8] c"4320/.,+*)('&$#\22! \1F\1E\1E\1D\1C\1B\1A\19\18\17\17\16\15\14\13\13\12\11\10\10\0F\0E\0E\0D\0C\0C\0B\0A\0A\09\09\08\07\07\06\06\05\04\04\03\03\02\02\01\01\00\7F}{ywvtrqomljigfdca`_]\\[ZXWVUTSRPONMLKJIHGFFEDCBA@??>=<;;:988765", align 16

; Function Attrs: inlinehint nounwind uwtable
define internal i64 @make_mask64(i32 noundef %0, i32 noundef %1) #5 {
  %3 = alloca i32, align 4
  %4 = alloca i32, align 4
  store i32 %0, ptr %3, align 4, !tbaa !8
  store i32 %1, ptr %4, align 4, !tbaa !8
  %5 = load i32, ptr %4, align 4, !tbaa !8
  %6 = sub nsw i32 64, %5
  %7 = zext i32 %6 to i64
  %8 = lshr i64 -1, %7
  %9 = load i32, ptr %3, align 4, !tbaa !8
  %10 = zext i32 %9 to i64
  %11 = shl i64 %8, %10
  ret i64 %11
}

; Function Attrs: inlinehint nounwind uwtable
define internal i64 @extract64(i64 noundef %0, i32 noundef %1, i32 noundef %2) #5 {
  %4 = alloca i64, align 8
  %5 = alloca i32, align 4
  %6 = alloca i32, align 4
  store i64 %0, ptr %4, align 8, !tbaa !15
  store i32 %1, ptr %5, align 4, !tbaa !8
  store i32 %2, ptr %6, align 4, !tbaa !8
  %7 = load i64, ptr %4, align 8, !tbaa !15
  %8 = load i32, ptr %5, align 4, !tbaa !8
  %9 = zext i32 %8 to i64
  %10 = lshr i64 %7, %9
  %11 = load i32, ptr %6, align 4, !tbaa !8
  %12 = sub nsw i32 64, %11
  %13 = zext i32 %12 to i64
  %14 = lshr i64 -1, %13
  %15 = and i64 %10, %14
  ret i64 %15
}

; Function Attrs: inlinehint nounwind uwtable
define internal i64 @rsqrte7(i64 noundef %0, i32 noundef %1, i32 noundef %2, i1 noundef zeroext %3) #5 {
  %5 = alloca i64, align 8
  %6 = alloca i32, align 4
  %7 = alloca i32, align 4
  %8 = alloca i8, align 1
  %9 = alloca i64, align 8
  %10 = alloca i64, align 8
  %11 = alloca i64, align 8
  %12 = alloca i32, align 4
  %13 = alloca i32, align 4
  %14 = alloca i64, align 8
  %15 = alloca i64, align 8
  store i64 %0, ptr %5, align 8, !tbaa !15
  store i32 %1, ptr %6, align 4, !tbaa !8
  store i32 %2, ptr %7, align 4, !tbaa !8
  %16 = zext i1 %3 to i8
  store i8 %16, ptr %8, align 1, !tbaa !10
  call void @llvm.lifetime.start.p0(i64 8, ptr %9) #6
  %17 = load i64, ptr %5, align 8, !tbaa !15
  %18 = load i32, ptr %7, align 4, !tbaa !8
  %19 = load i32, ptr %6, align 4, !tbaa !8
  %20 = call i64 @extract64(i64 noundef %17, i32 noundef %18, i32 noundef %19)
  store i64 %20, ptr %9, align 8, !tbaa !15
  call void @llvm.lifetime.start.p0(i64 8, ptr %10) #6
  %21 = load i64, ptr %5, align 8, !tbaa !15
  %22 = load i32, ptr %7, align 4, !tbaa !8
  %23 = call i64 @extract64(i64 noundef %21, i32 noundef 0, i32 noundef %22)
  store i64 %23, ptr %10, align 8, !tbaa !15
  call void @llvm.lifetime.start.p0(i64 8, ptr %11) #6
  %24 = load i64, ptr %5, align 8, !tbaa !15
  %25 = load i32, ptr %7, align 4, !tbaa !8
  %26 = load i32, ptr %6, align 4, !tbaa !8
  %27 = add nsw i32 %25, %26
  %28 = call i64 @extract64(i64 noundef %24, i32 noundef %27, i32 noundef 1)
  store i64 %28, ptr %11, align 8, !tbaa !15
  call void @llvm.lifetime.start.p0(i64 4, ptr %12) #6
  store i32 7, ptr %12, align 4, !tbaa !8
  %29 = load i8, ptr %8, align 1, !tbaa !10, !range !13, !noundef !14
  %30 = trunc i8 %29 to i1
  br i1 %30, label %31, label %49

31:                                               ; preds = %4
  br label %32

32:                                               ; preds = %38, %31
  %33 = load i64, ptr %10, align 8, !tbaa !15
  %34 = load i32, ptr %7, align 4, !tbaa !8
  %35 = sub nsw i32 %34, 1
  %36 = call i64 @extract64(i64 noundef %33, i32 noundef %35, i32 noundef 1)
  %37 = icmp eq i64 %36, 0
  br i1 %37, label %38, label %43

38:                                               ; preds = %32
  %39 = load i64, ptr %9, align 8, !tbaa !15
  %40 = add i64 %39, -1
  store i64 %40, ptr %9, align 8, !tbaa !15
  %41 = load i64, ptr %10, align 8, !tbaa !15
  %42 = shl i64 %41, 1
  store i64 %42, ptr %10, align 8, !tbaa !15
  br label %32, !llvm.loop !17

43:                                               ; preds = %32
  %44 = load i64, ptr %10, align 8, !tbaa !15
  %45 = shl i64 %44, 1
  %46 = load i32, ptr %7, align 4, !tbaa !8
  %47 = call i64 @make_mask64(i32 noundef 0, i32 noundef %46)
  %48 = and i64 %45, %47
  store i64 %48, ptr %10, align 8, !tbaa !15
  br label %49

49:                                               ; preds = %43, %4
  call void @llvm.lifetime.start.p0(i64 4, ptr %13) #6
  %50 = load i64, ptr %9, align 8, !tbaa !15
  %51 = and i64 %50, 1
  %52 = shl i64 %51, 6
  %53 = load i64, ptr %10, align 8, !tbaa !15
  %54 = load i32, ptr %7, align 4, !tbaa !8
  %55 = sub nsw i32 %54, 7
  %56 = add nsw i32 %55, 1
  %57 = zext i32 %56 to i64
  %58 = lshr i64 %53, %57
  %59 = or i64 %52, %58
  %60 = trunc i64 %59 to i32
  store i32 %60, ptr %13, align 4, !tbaa !8
  call void @llvm.lifetime.start.p0(i64 8, ptr %14) #6
  %61 = load i32, ptr %13, align 4, !tbaa !8
  %62 = sext i32 %61 to i64
  %63 = getelementptr inbounds [128 x i8], ptr @rsqrte7.table, i64 0, i64 %62
  %64 = load i8, ptr %63, align 1, !tbaa !12
  %65 = zext i8 %64 to i64
  %66 = load i32, ptr %7, align 4, !tbaa !8
  %67 = sub nsw i32 %66, 7
  %68 = zext i32 %67 to i64
  %69 = shl i64 %65, %68
  store i64 %69, ptr %14, align 8, !tbaa !15
  call void @llvm.lifetime.start.p0(i64 8, ptr %15) #6
  %70 = load i32, ptr %6, align 4, !tbaa !8
  %71 = sub nsw i32 %70, 1
  %72 = call i64 @make_mask64(i32 noundef 0, i32 noundef %71)
  %73 = mul i64 3, %72
  %74 = load i64, ptr %9, align 8, !tbaa !15
  %75 = xor i64 %74, -1
  %76 = add i64 %73, %75
  %77 = udiv i64 %76, 2
  store i64 %77, ptr %15, align 8, !tbaa !15
  %78 = load i64, ptr %11, align 8, !tbaa !15
  %79 = load i32, ptr %7, align 4, !tbaa !8
  %80 = load i32, ptr %6, align 4, !tbaa !8
  %81 = add nsw i32 %79, %80
  %82 = zext i32 %81 to i64
  %83 = shl i64 %78, %82
  %84 = load i64, ptr %15, align 8, !tbaa !15
  %85 = load i32, ptr %7, align 4, !tbaa !8
  %86 = zext i32 %85 to i64
  %87 = shl i64 %84, %86
  %88 = or i64 %83, %87
  %89 = load i64, ptr %14, align 8, !tbaa !15
  %90 = or i64 %88, %89
  call void @llvm.lifetime.end.p0(i64 8, ptr %15) #6
  call void @llvm.lifetime.end.p0(i64 8, ptr %14) #6
  call void @llvm.lifetime.end.p0(i64 4, ptr %13) #6
  call void @llvm.lifetime.end.p0(i64 4, ptr %12) #6
  call void @llvm.lifetime.end.p0(i64 8, ptr %11) #6
  call void @llvm.lifetime.end.p0(i64 8, ptr %10) #6
  call void @llvm.lifetime.end.p0(i64 8, ptr %9) #6
  ret i64 %90
}

; Function Attrs: nounwind uwtable
define i16 @bf16_rsqrte7(i16 %0) #0 {
  %2 = alloca %struct.float16_t, align 2
  %3 = alloca %struct.float16_t, align 2
  %4 = alloca %union.ui16_bf16, align 2
  %5 = alloca i32, align 4
  %6 = alloca i8, align 1
  %7 = getelementptr inbounds nuw %struct.float16_t, ptr %3, i32 0, i32 0
  store i16 %0, ptr %7, align 2
  call void @llvm.lifetime.start.p0(i64 2, ptr %4) #6
  call void @llvm.memcpy.p0.p0.i64(ptr align 2 %4, ptr align 2 %3, i64 2, i1 false), !tbaa.struct !3
  call void @llvm.lifetime.start.p0(i64 4, ptr %5) #6
  %8 = getelementptr inbounds nuw %struct.float16_t, ptr %3, i32 0, i32 0
  %9 = load i16, ptr %8, align 2
  %10 = call i64 @bf16_classify(i16 %9)
  %11 = trunc i64 %10 to i32
  store i32 %11, ptr %5, align 4, !tbaa !8
  call void @llvm.lifetime.start.p0(i64 1, ptr %6) #6
  store i8 0, ptr %6, align 1, !tbaa !10
  %12 = load i32, ptr %5, align 4, !tbaa !8
  switch i32 %12, label %34 [
    i32 1, label %13
    i32 2, label %13
    i32 4, label %13
    i32 256, label %13
    i32 512, label %19
    i32 8, label %20
    i32 16, label %26
    i32 128, label %32
    i32 32, label %33
  ]

13:                                               ; preds = %1, %1, %1, %1
  %14 = call align 1 ptr @llvm.threadlocal.address.p0(ptr align 1 @softfloat_exceptionFlags)
  %15 = load i8, ptr %14, align 1, !tbaa !12
  %16 = zext i8 %15 to i32
  %17 = or i32 %16, 16
  %18 = trunc i32 %17 to i8
  store i8 %18, ptr %14, align 1, !tbaa !12
  br label %19

19:                                               ; preds = %1, %13
  store i16 32704, ptr %4, align 2, !tbaa !12
  br label %41

20:                                               ; preds = %1
  store i16 -128, ptr %4, align 2, !tbaa !12
  %21 = call align 1 ptr @llvm.threadlocal.address.p0(ptr align 1 @softfloat_exceptionFlags)
  %22 = load i8, ptr %21, align 1, !tbaa !12
  %23 = zext i8 %22 to i32
  %24 = or i32 %23, 8
  %25 = trunc i32 %24 to i8
  store i8 %25, ptr %21, align 1, !tbaa !12
  br label %41

26:                                               ; preds = %1
  store i16 32640, ptr %4, align 2, !tbaa !12
  %27 = call align 1 ptr @llvm.threadlocal.address.p0(ptr align 1 @softfloat_exceptionFlags)
  %28 = load i8, ptr %27, align 1, !tbaa !12
  %29 = zext i8 %28 to i32
  %30 = or i32 %29, 8
  %31 = trunc i32 %30 to i8
  store i8 %31, ptr %27, align 1, !tbaa !12
  br label %41

32:                                               ; preds = %1
  store i16 0, ptr %4, align 2, !tbaa !12
  br label %41

33:                                               ; preds = %1
  store i8 1, ptr %6, align 1, !tbaa !10
  br label %34

34:                                               ; preds = %1, %33
  %35 = load i16, ptr %4, align 2, !tbaa !12
  %36 = zext i16 %35 to i64
  %37 = load i8, ptr %6, align 1, !tbaa !10, !range !13, !noundef !14
  %38 = trunc i8 %37 to i1
  %39 = call i64 @rsqrte7(i64 noundef %36, i32 noundef 8, i32 noundef 7, i1 noundef zeroext %38)
  %40 = trunc i64 %39 to i16
  store i16 %40, ptr %4, align 2, !tbaa !12
  br label %41

41:                                               ; preds = %34, %32, %26, %20, %19
  call void @llvm.memcpy.p0.p0.i64(ptr align 2 %2, ptr align 2 %4, i64 2, i1 false), !tbaa.struct !3
  call void @llvm.lifetime.end.p0(i64 1, ptr %6) #6
  call void @llvm.lifetime.end.p0(i64 4, ptr %5) #6
  call void @llvm.lifetime.end.p0(i64 2, ptr %4) #6
  %42 = getelementptr inbounds nuw %struct.float16_t, ptr %2, i32 0, i32 0
  %43 = load i16, ptr %42, align 2
  ret i16 %43
}