; Function Attrs: nounwind uwtable
define i16 @bf16_rsqrte7(i16 %0) local_unnamed_addr #0 {
  %2 = tail call i64 @bf16_classify(i16 %0) #3
  %3 = trunc i64 %2 to i32
  switch i32 %3, label %17 [
    i32 1, label %4
    i32 2, label %4
    i32 4, label %4
    i32 256, label %4
    i32 512, label %47
    i32 8, label %8
    i32 16, label %12
    i32 128, label %16
    i32 32, label %.preheader.i
  ]

4:                                                ; preds = %1, %1, %1, %1
  %5 = tail call align 1 ptr @llvm.threadlocal.address.p0(ptr align 1 @softfloat_exceptionFlags)
  %6 = load i8, ptr %5, align 1, !tbaa !3
  %7 = or i8 %6, 16
  store i8 %7, ptr %5, align 1, !tbaa !3
  br label %47

8:                                                ; preds = %1
  %9 = tail call align 1 ptr @llvm.threadlocal.address.p0(ptr align 1 @softfloat_exceptionFlags)
  %10 = load i8, ptr %9, align 1, !tbaa !3
  %11 = or i8 %10, 8
  store i8 %11, ptr %9, align 1, !tbaa !3
  br label %47

12:                                               ; preds = %1
  %13 = tail call align 1 ptr @llvm.threadlocal.address.p0(ptr align 1 @softfloat_exceptionFlags)
  %14 = load i8, ptr %13, align 1, !tbaa !3
  %15 = or i8 %14, 8
  store i8 %15, ptr %13, align 1, !tbaa !3
  br label %47

16:                                               ; preds = %1
  br label %47

17:                                               ; preds = %1
  %18 = zext i16 %0 to i64
  %19 = lshr i64 %18, 7
  %20 = and i64 %19, 255
  %21 = and i64 %18, 127
  br label %rsqrte7.exit

.preheader.i:                                     ; preds = %1
  %22 = zext i16 %0 to i64
  %23 = lshr i64 %22, 7
  %24 = and i64 %23, 255
  %25 = and i64 %22, 64
  %26 = icmp eq i64 %25, 0
  br i1 %26, label %.lr.ph.i, label %._crit_edge.i

.lr.ph.i:                                         ; preds = %.preheader.i, %.lr.ph.i
  %.131.i = phi i64 [ %27, %.lr.ph.i ], [ %24, %.preheader.i ]
  %.12930.i = phi i64 [ %28, %.lr.ph.i ], [ %22, %.preheader.i ]
  %27 = add i64 %.131.i, -1
  %28 = shl i64 %.12930.i, 1
  %29 = and i64 %.12930.i, 32
  %30 = icmp eq i64 %29, 0
  br i1 %30, label %.lr.ph.i, label %._crit_edge.i, !llvm.loop !6

._crit_edge.i:                                    ; preds = %.lr.ph.i, %.preheader.i
  %.129.lcssa.i = phi i64 [ %22, %.preheader.i ], [ %28, %.lr.ph.i ]
  %.1.lcssa.i = phi i64 [ %24, %.preheader.i ], [ %27, %.lr.ph.i ]
  %31 = shl i64 %.129.lcssa.i, 1
  %32 = and i64 %31, 126
  br label %rsqrte7.exit

rsqrte7.exit:                                     ; preds = %17, %._crit_edge.i
  %33 = phi i64 [ %22, %._crit_edge.i ], [ %18, %17 ]
  %.028.i = phi i64 [ %32, %._crit_edge.i ], [ %21, %17 ]
  %.0.i = phi i64 [ %.1.lcssa.i, %._crit_edge.i ], [ %20, %17 ]
  %34 = and i64 %33, 32768
  %35 = shl i64 %.0.i, 6
  %36 = and i64 %35, 64
  %37 = lshr i64 %.028.i, 1
  %38 = or disjoint i64 %36, %37
  %39 = getelementptr inbounds nuw [128 x i8], ptr @rsqrte7.table, i64 0, i64 %38
  %40 = load i8, ptr %39, align 1, !tbaa !3
  %41 = zext i8 %40 to i64
  %42 = sub i64 24320, %35
  %43 = and i64 %42, 65408
  %44 = or disjoint i64 %34, %41
  %45 = or i64 %44, %43
  %46 = trunc nuw i64 %45 to i16
  br label %47

47:                                               ; preds = %1, %4, %rsqrte7.exit, %16, %12, %8
  %.sroa.0.0 = phi i16 [ %46, %rsqrte7.exit ], [ 0, %16 ], [ 32640, %12 ], [ -128, %8 ], [ 32704, %4 ], [ 32704, %1 ]
  ret i16 %.sroa.0.0
}